; Function Attrs: nounwind uwtable
define hidden void @Wayland_SetWindowTitle(ptr noundef readnone captures(none) %0, ptr noundef readonly captures(none) %1) local_unnamed_addr #0 {
  %3 = getelementptr inbounds nuw i8, ptr %1, i64 392
  %4 = load ptr, ptr %3, align 8
  %5 = getelementptr inbounds nuw i8, ptr %1, i64 8
  %6 = load ptr, ptr %5, align 8
  %.not = icmp eq ptr %6, null
  %spec.select = select i1 %.not, ptr @.str.20, ptr %6
  %7 = getelementptr inbounds nuw i8, ptr %4, i64 88
  %8 = load i32, ptr %7, align 8
  %9 = icmp eq i32 %8, 1
  br i1 %9, label %10, label %18

10:                                               ; preds = %2
  %11 = getelementptr inbounds nuw i8, ptr %4, i64 64
  %12 = load ptr, ptr %11, align 8
  %.not8 = icmp eq ptr %12, null
  br i1 %.not8, label %18, label %13

13:                                               ; preds = %10
  %14 = load ptr, ptr @WAYLAND_wl_proxy_marshal_flags, align 8
  %15 = load ptr, ptr @WAYLAND_wl_proxy_get_version, align 8
  %16 = tail call i32 %15(ptr noundef nonnull %12) #15
  %17 = tail call ptr (ptr, i32, ptr, i32, i32, ...) %14(ptr noundef nonnull %12, i32 noundef 2, ptr noundef null, i32 noundef %16, i32 noundef 0, ptr noundef nonnull %spec.select) #15
  br label %18

18:                                               ; preds = %13, %10, %2
  ret void
}